target datalayout = "e-m:e-p270:32:32-p271:32:32-p272:64:64-i64:64-i128:128-f80:128-n8:16:32:64-S128"
target triple = "x86_64-pc-linux-gnu"

%class.compiledVFrame = type <{ %class.javaVFrame, ptr, i32, [4 x i8] }>
%class.javaVFrame = type { %class.vframe }
%class.vframe = type { ptr, %class.frame, %class.RegisterMap, ptr, %class.stackChunkHandle }
%class.frame = type { %union.anon, ptr, ptr, ptr, i32, i8, %union.anon.0, %union.anon.1 }
%union.anon = type { ptr }
%union.anon.0 = type { ptr }
%union.anon.1 = type { ptr }
%class.RegisterMap = type <{ [609 x ptr], [10 x i64], i8, [7 x i8], ptr, %class.stackChunkHandle, i32, i8, i8, i8, i8 }>
%class.stackChunkHandle = type { %class.Handle }
%class.Handle = type { ptr }
%class.ScopeDesc = type { ptr, i32, i8, i8, i8, i8, i8, i32, i32, i32, i32, i32, ptr, ptr }

; Function Attrs: mustprogress nounwind uwtable
define linkonce_odr hidden noundef ptr @_ZNK5frame2pcEv(ptr noundef nonnull align 8 dereferenceable(56) %0) #1 comdat align 2 {
  %2 = alloca ptr, align 8
  store ptr %0, ptr %2, align 8
  %3 = load ptr, ptr %2, align 8
  %4 = getelementptr inbounds %class.frame, ptr %3, i32 0, i32 1
  %5 = load ptr, ptr %4, align 8
  ret ptr %5
}

; Function Attrs: mustprogress nounwind uwtable
define linkonce_odr hidden noundef zeroext i1 @_ZNK9ScopeDesc16should_reexecuteEv(ptr noundef nonnull align 8 dereferenceable(56) %0) #1 comdat align 2 {
  %2 = alloca ptr, align 8
  store ptr %0, ptr %2, align 8
  %3 = load ptr, ptr %2, align 8
  %4 = getelementptr inbounds %class.ScopeDesc, ptr %3, i32 0, i32 2
  %5 = load i8, ptr %4, align 4
  %6 = trunc i8 %5 to i1
  ret i1 %6
}

; Function Attrs: mustprogress nounwind uwtable
define hidden noundef ptr @_ZNK14compiledVFrame4codeEv(ptr noundef nonnull align 8 dereferenceable(5076) %0) #1 align 2 {
  %2 = alloca ptr, align 8
  store ptr %0, ptr %2, align 8
  %3 = load ptr, ptr %2, align 8
  %4 = getelementptr inbounds %class.vframe, ptr %3, i32 0, i32 1
  %5 = call noundef ptr @_ZNK5frame2pcEv(ptr noundef nonnull align 8 dereferenceable(56) %4)
  %6 = call noundef ptr @_ZN9CodeCache12find_nmethodEPv(ptr noundef %5)
  ret ptr %6
}

; Function Attrs: mustprogress nounwind uwtable
define linkonce_odr hidden noundef ptr @_ZNK14compiledVFrame5scopeEv(ptr noundef nonnull align 8 dereferenceable(5076) %0) #1 comdat align 2 {
  %2 = alloca ptr, align 8
  store ptr %0, ptr %2, align 8
  %3 = load ptr, ptr %2, align 8
  %4 = getelementptr inbounds %class.compiledVFrame, ptr %3, i32 0, i32 1
  %5 = load ptr, ptr %4, align 8
  ret ptr %5
}

; Function Attrs: mustprogress nounwind uwtable
define hidden noundef zeroext i1 @_ZNK14compiledVFrame16should_reexecuteEv(ptr noundef nonnull align 8 dereferenceable(5076) %0) #1 align 2 {
  %2 = alloca i1, align 1
  %3 = alloca ptr, align 8
  %4 = alloca ptr, align 8
  store ptr %0, ptr %3, align 8
  %5 = load ptr, ptr %3, align 8
  %6 = call noundef ptr @_ZNK14compiledVFrame5scopeEv(ptr noundef nonnull align 8 dereferenceable(5076) %5)
  %7 = icmp eq ptr %6, null
  br i1 %7, label %8, label %10

8:                                                ; preds = %1
  %9 = call noundef ptr @_ZNK14compiledVFrame4codeEv(ptr noundef nonnull align 8 dereferenceable(5076) %5)
  store ptr %9, ptr %4, align 8
  store i1 false, ptr %2, align 1
  br label %13

10:                                               ; preds = %1
  %11 = call noundef ptr @_ZNK14compiledVFrame5scopeEv(ptr noundef nonnull align 8 dereferenceable(5076) %5)
  %12 = call noundef zeroext i1 @_ZNK9ScopeDesc16should_reexecuteEv(ptr noundef nonnull align 8 dereferenceable(56) %11)
  store i1 %12, ptr %2, align 1
  br label %13

13:                                               ; preds = %10, %8
  %14 = load i1, ptr %2, align 1
  ret i1 %14
}