; Function Attrs: mustprogress nounwind uwtable
define hidden noundef zeroext i1 @_ZNK14compiledVFrame16should_reexecuteEv(ptr nocapture noundef nonnull readonly align 8 dereferenceable(5076) %0) local_unnamed_addr #0 align 2 {
  %2 = getelementptr inbounds i8, ptr %0, i64 5064
  %3 = load ptr, ptr %2, align 8
  %4 = icmp eq ptr %3, null
  br i1 %4, label %5, label %9

5:                                                ; preds = %1
  %6 = getelementptr inbounds i8, ptr %0, i64 16
  %7 = load ptr, ptr %6, align 8
  %8 = tail call noundef ptr @_ZN9CodeCache12find_nmethodEPv(ptr noundef %7) #11
  br label %13

9:                                                ; preds = %1
  %10 = getelementptr inbounds i8, ptr %3, i64 12
  %11 = load i8, ptr %10, align 4
  %12 = trunc i8 %11 to i1
  br label %13

13:                                               ; preds = %9, %5
  %.0 = phi i1 [ false, %5 ], [ %12, %9 ]
  ret i1 %.0
}